; ModuleID = 'source-C-CXX/59/1124.c'
source_filename = "source-C-CXX/59/1124.c"
target datalayout = "e-m:e-p270:32:32-p271:32:32-p272:64:64-i64:64-f80:128-n8:16:32:64-S128"
target triple = "x86_64-pc-linux-gnu"

@.str = private unnamed_addr constant [3 x i8] c"%d\00", align 1
@.str.1 = private unnamed_addr constant [7 x i8] c"%d %d\0A\00", align 1
@.str.2 = private unnamed_addr constant [6 x i8] c"empty\00", align 1

; Function Attrs: nofree norecurse nosync nounwind readnone sspstrong uwtable
define dso_local i32 @sushu(i32 %0) local_unnamed_addr #0 {
  %2 = icmp sgt i32 %0, 2
  br i1 %2, label %3, label %32

3:                                                ; preds = %1
  %4 = and i32 %0, 1
  %5 = icmp eq i32 %0, 3
  br i1 %5, label %23, label %6

6:                                                ; preds = %3
  %7 = add i32 %0, -2
  %8 = and i32 %7, -2
  br label %9

9:                                                ; preds = %9, %6
  %10 = phi i32 [ 1, %6 ], [ %19, %9 ]
  %11 = phi i32 [ 2, %6 ], [ %20, %9 ]
  %12 = phi i32 [ %8, %6 ], [ %21, %9 ]
  %13 = srem i32 %0, %11
  %14 = icmp eq i32 %13, 0
  %15 = or i32 %11, 1
  %16 = srem i32 %0, %15
  %17 = icmp eq i32 %16, 0
  %18 = select i1 %17, i1 true, i1 %14
  %19 = select i1 %18, i32 0, i32 %10
  %20 = add nuw nsw i32 %11, 2
  %21 = add i32 %12, -2
  %22 = icmp eq i32 %21, 0
  br i1 %22, label %23, label %9, !llvm.loop !5

23:                                               ; preds = %9, %3
  %24 = phi i32 [ undef, %3 ], [ %19, %9 ]
  %25 = phi i32 [ 1, %3 ], [ %19, %9 ]
  %26 = phi i32 [ 2, %3 ], [ %20, %9 ]
  %27 = icmp eq i32 %4, 0
  br i1 %27, label %32, label %28

28:                                               ; preds = %23
  %29 = srem i32 %0, %26
  %30 = icmp eq i32 %29, 0
  %31 = select i1 %30, i32 0, i32 %25
  br label %32

32:                                               ; preds = %28, %23, %1
  %33 = phi i32 [ 1, %1 ], [ %24, %23 ], [ %31, %28 ]
  ret i32 %33
}

; Function Attrs: argmemonly mustprogress nofree nosync nounwind willreturn
declare void @llvm.lifetime.start.p0i8(i64 immarg, i8* nocapture) #1

; Function Attrs: argmemonly mustprogress nofree nosync nounwind willreturn
declare void @llvm.lifetime.end.p0i8(i64 immarg, i8* nocapture) #1

; Function Attrs: nofree nounwind sspstrong uwtable
define dso_local i32 @main() local_unnamed_addr #2 {
  %1 = alloca i32, align 4
  %2 = bitcast i32* %1 to i8*
  call void @llvm.lifetime.start.p0i8(i64 4, i8* nonnull %2) #4
  %3 = call i32 (i8*, ...) @__isoc99_scanf(i8* getelementptr inbounds ([3 x i8], [3 x i8]* @.str, i64 0, i64 0), i32* nonnull %1)
  %4 = load i32, i32* %1, align 4, !tbaa !7
  %5 = icmp slt i32 %4, 4
  br i1 %5, label %87, label %6

6:                                                ; preds = %0, %79
  %7 = phi i32 [ %84, %79 ], [ 0, %0 ]
  %8 = phi i32 [ %80, %79 ], [ %4, %0 ]
  %9 = phi i32 [ %81, %79 ], [ 0, %0 ]
  %10 = phi i32 [ %82, %79 ], [ 4, %0 ]
  %11 = add i32 %7, 2
  %12 = add nsw i32 %10, -2
  %13 = icmp ugt i32 %10, 4
  br i1 %13, label %14, label %45

14:                                               ; preds = %6
  %15 = and i32 %7, 1
  %16 = icmp eq i32 %7, 1
  br i1 %16, label %33, label %17

17:                                               ; preds = %14
  %18 = and i32 %7, -2
  br label %19

19:                                               ; preds = %19, %17
  %20 = phi i32 [ 1, %17 ], [ %29, %19 ]
  %21 = phi i32 [ 2, %17 ], [ %30, %19 ]
  %22 = phi i32 [ %18, %17 ], [ %31, %19 ]
  %23 = urem i32 %12, %21
  %24 = icmp eq i32 %23, 0
  %25 = or i32 %21, 1
  %26 = urem i32 %12, %25
  %27 = icmp eq i32 %26, 0
  %28 = select i1 %27, i1 true, i1 %24
  %29 = select i1 %28, i32 0, i32 %20
  %30 = add nuw nsw i32 %21, 2
  %31 = add i32 %22, -2
  %32 = icmp eq i32 %31, 0
  br i1 %32, label %33, label %19, !llvm.loop !5

33:                                               ; preds = %19, %14
  %34 = phi i32 [ undef, %14 ], [ %29, %19 ]
  %35 = phi i32 [ 1, %14 ], [ %29, %19 ]
  %36 = phi i32 [ 2, %14 ], [ %30, %19 ]
  %37 = icmp eq i32 %15, 0
  br i1 %37, label %42, label %38

38:                                               ; preds = %33
  %39 = urem i32 %12, %36
  %40 = icmp eq i32 %39, 0
  %41 = select i1 %40, i32 0, i32 %35
  br label %42

42:                                               ; preds = %33, %38
  %43 = phi i32 [ %34, %33 ], [ %41, %38 ]
  %44 = icmp eq i32 %43, 0
  br i1 %44, label %79, label %45

45:                                               ; preds = %42, %6
  %46 = and i32 %7, 1
  %47 = icmp eq i32 %7, -1
  br i1 %47, label %64, label %48

48:                                               ; preds = %45
  %49 = and i32 %11, -2
  br label %50

50:                                               ; preds = %50, %48
  %51 = phi i32 [ 1, %48 ], [ %60, %50 ]
  %52 = phi i32 [ 2, %48 ], [ %61, %50 ]
  %53 = phi i32 [ %49, %48 ], [ %62, %50 ]
  %54 = urem i32 %10, %52
  %55 = icmp eq i32 %54, 0
  %56 = or i32 %52, 1
  %57 = urem i32 %10, %56
  %58 = icmp eq i32 %57, 0
  %59 = select i1 %58, i1 true, i1 %55
  %60 = select i1 %59, i32 0, i32 %51
  %61 = add nuw nsw i32 %52, 2
  %62 = add i32 %53, -2
  %63 = icmp eq i32 %62, 0
  br i1 %63, label %64, label %50, !llvm.loop !5

64:                                               ; preds = %50, %45
  %65 = phi i32 [ undef, %45 ], [ %60, %50 ]
  %66 = phi i32 [ 1, %45 ], [ %60, %50 ]
  %67 = phi i32 [ 2, %45 ], [ %61, %50 ]
  %68 = icmp eq i32 %46, 0
  br i1 %68, label %73, label %69

69:                                               ; preds = %64
  %70 = urem i32 %10, %67
  %71 = icmp eq i32 %70, 0
  %72 = select i1 %71, i32 0, i32 %66
  br label %73

73:                                               ; preds = %64, %69
  %74 = phi i32 [ %65, %64 ], [ %72, %69 ]
  %75 = icmp eq i32 %74, 0
  br i1 %75, label %79, label %76

76:                                               ; preds = %73
  %77 = call i32 (i8*, ...) @printf(i8* nonnull dereferenceable(1) getelementptr inbounds ([7 x i8], [7 x i8]* @.str.1, i64 0, i64 0), i32 %12, i32 %10)
  %78 = load i32, i32* %1, align 4, !tbaa !7
  br label %79

79:                                               ; preds = %42, %73, %76
  %80 = phi i32 [ %78, %76 ], [ %8, %73 ], [ %8, %42 ]
  %81 = phi i32 [ 1, %76 ], [ %9, %73 ], [ %9, %42 ]
  %82 = add nuw nsw i32 %10, 1
  %83 = icmp slt i32 %10, %80
  %84 = add i32 %7, 1
  br i1 %83, label %6, label %85, !llvm.loop !11

85:                                               ; preds = %79
  %86 = icmp eq i32 %81, 0
  br i1 %86, label %87, label %89

87:                                               ; preds = %0, %85
  %88 = call i32 (i8*, ...) @printf(i8* nonnull dereferenceable(1) getelementptr inbounds ([6 x i8], [6 x i8]* @.str.2, i64 0, i64 0))
  br label %89

89:                                               ; preds = %87, %85
  call void @llvm.lifetime.end.p0i8(i64 4, i8* nonnull %2) #4
  ret i32 0
}

; Function Attrs: nofree nounwind
declare noundef i32 @__isoc99_scanf(i8* nocapture noundef readonly, ...) local_unnamed_addr #3

; Function Attrs: nofree nounwind
declare noundef i32 @printf(i8* nocapture noundef readonly, ...) local_unnamed_addr #3


!llvm.module.flags = !{!0, !1, !2, !3}
!llvm.ident = !{!4}

!0 = !{i32 1, !"wchar_size", i32 4}
!1 = !{i32 7, !"PIC Level", i32 2}
!2 = !{i32 7, !"PIE Level", i32 2}
!3 = !{i32 7, !"uwtable", i32 1}
!4 = !{!"clang version 13.0.0"}
!5 = distinct !{!5, !6}
!6 = !{!"llvm.loop.mustprogress"}
!7 = !{!8, !8, i64 0}
!8 = !{!"int", !9, i64 0}
!9 = !{!"omnipotent char", !10, i64 0}
!10 = !{!"Simple C/C++ TBAA"}
!11 = distinct !{!11, !6}
